target datalayout = "e-m:e-p270:32:32-p271:32:32-p272:64:64-i64:64-i128:128-f80:128-n8:16:32:64-S128"
target triple = "x86_64-pc-linux-gnu"

%struct.MD5Context = type { [4 x i32], [2 x i32], [64 x i8] }

; Function Attrs: nounwind uwtable
define dso_local void @MD5Update(ptr noundef %0, ptr noundef %1, i32 noundef %2) #0 {
  %4 = alloca ptr, align 8
  %5 = alloca ptr, align 8
  %6 = alloca i32, align 4
  %7 = alloca i32, align 4
  %8 = alloca ptr, align 8
  %9 = alloca i32, align 4
  store ptr %0, ptr %4, align 8, !tbaa !4
  store ptr %1, ptr %5, align 8, !tbaa !11
  store i32 %2, ptr %6, align 4, !tbaa !9
  call void @llvm.lifetime.start.p0(i64 4, ptr %7) #4
  %10 = load ptr, ptr %4, align 8, !tbaa !4
  %11 = getelementptr inbounds nuw %struct.MD5Context, ptr %10, i32 0, i32 1
  %12 = getelementptr inbounds [2 x i32], ptr %11, i64 0, i64 0
  %13 = load i32, ptr %12, align 4, !tbaa !9
  store i32 %13, ptr %7, align 4, !tbaa !9
  %14 = load i32, ptr %7, align 4, !tbaa !9
  %15 = load i32, ptr %6, align 4, !tbaa !9
  %16 = shl i32 %15, 3
  %17 = add i32 %14, %16
  %18 = load ptr, ptr %4, align 8, !tbaa !4
  %19 = getelementptr inbounds nuw %struct.MD5Context, ptr %18, i32 0, i32 1
  %20 = getelementptr inbounds [2 x i32], ptr %19, i64 0, i64 0
  store i32 %17, ptr %20, align 4, !tbaa !9
  %21 = load i32, ptr %7, align 4, !tbaa !9
  %22 = icmp ult i32 %17, %21
  br i1 %22, label %23, label %29

23:                                               ; preds = %3
  %24 = load ptr, ptr %4, align 8, !tbaa !4
  %25 = getelementptr inbounds nuw %struct.MD5Context, ptr %24, i32 0, i32 1
  %26 = getelementptr inbounds [2 x i32], ptr %25, i64 0, i64 1
  %27 = load i32, ptr %26, align 4, !tbaa !9
  %28 = add i32 %27, 1
  store i32 %28, ptr %26, align 4, !tbaa !9
  br label %29

29:                                               ; preds = %23, %3
  %30 = load i32, ptr %6, align 4, !tbaa !9
  %31 = lshr i32 %30, 29
  %32 = load ptr, ptr %4, align 8, !tbaa !4
  %33 = getelementptr inbounds nuw %struct.MD5Context, ptr %32, i32 0, i32 1
  %34 = getelementptr inbounds [2 x i32], ptr %33, i64 0, i64 1
  %35 = load i32, ptr %34, align 4, !tbaa !9
  %36 = add i32 %35, %31
  store i32 %36, ptr %34, align 4, !tbaa !9
  %37 = load i32, ptr %7, align 4, !tbaa !9
  %38 = lshr i32 %37, 3
  %39 = and i32 %38, 63
  store i32 %39, ptr %7, align 4, !tbaa !9
  %40 = load i32, ptr %7, align 4, !tbaa !9
  %41 = icmp ne i32 %40, 0
  br i1 %41, label %42, label %80

42:                                               ; preds = %29
  call void @llvm.lifetime.start.p0(i64 8, ptr %8) #4
  %43 = load ptr, ptr %4, align 8, !tbaa !4
  %44 = getelementptr inbounds nuw %struct.MD5Context, ptr %43, i32 0, i32 2
  %45 = getelementptr inbounds [64 x i8], ptr %44, i64 0, i64 0
  %46 = load i32, ptr %7, align 4, !tbaa !9
  %47 = zext i32 %46 to i64
  %48 = getelementptr inbounds nuw i8, ptr %45, i64 %47
  store ptr %48, ptr %8, align 8, !tbaa !11
  %49 = load i32, ptr %7, align 4, !tbaa !9
  %50 = sub i32 64, %49
  store i32 %50, ptr %7, align 4, !tbaa !9
  %51 = load i32, ptr %6, align 4, !tbaa !9
  %52 = load i32, ptr %7, align 4, !tbaa !9
  %53 = icmp ult i32 %51, %52
  br i1 %53, label %54, label %59

54:                                               ; preds = %42
  %55 = load ptr, ptr %8, align 8, !tbaa !11
  %56 = load ptr, ptr %5, align 8, !tbaa !11
  %57 = load i32, ptr %6, align 4, !tbaa !9
  %58 = zext i32 %57 to i64
  call void @llvm.memcpy.p0.p0.i64(ptr align 1 %55, ptr align 1 %56, i64 %58, i1 false)
  store i32 1, ptr %9, align 4
  br label %77

59:                                               ; preds = %42
  %60 = load ptr, ptr %8, align 8, !tbaa !11
  %61 = load ptr, ptr %5, align 8, !tbaa !11
  %62 = load i32, ptr %7, align 4, !tbaa !9
  %63 = zext i32 %62 to i64
  call void @llvm.memcpy.p0.p0.i64(ptr align 1 %60, ptr align 1 %61, i64 %63, i1 false)
  %64 = load ptr, ptr %4, align 8, !tbaa !4
  %65 = getelementptr inbounds nuw %struct.MD5Context, ptr %64, i32 0, i32 0
  %66 = getelementptr inbounds [4 x i32], ptr %65, i64 0, i64 0
  %67 = load ptr, ptr %4, align 8, !tbaa !4
  %68 = getelementptr inbounds nuw %struct.MD5Context, ptr %67, i32 0, i32 2
  %69 = getelementptr inbounds [64 x i8], ptr %68, i64 0, i64 0
  call void @MD5Transform(ptr noundef %66, ptr noundef %69)
  %70 = load i32, ptr %7, align 4, !tbaa !9
  %71 = load ptr, ptr %5, align 8, !tbaa !11
  %72 = zext i32 %70 to i64
  %73 = getelementptr inbounds nuw i8, ptr %71, i64 %72
  store ptr %73, ptr %5, align 8, !tbaa !11
  %74 = load i32, ptr %7, align 4, !tbaa !9
  %75 = load i32, ptr %6, align 4, !tbaa !9
  %76 = sub i32 %75, %74
  store i32 %76, ptr %6, align 4, !tbaa !9
  store i32 0, ptr %9, align 4
  br label %77

77:                                               ; preds = %59, %54
  call void @llvm.lifetime.end.p0(i64 8, ptr %8) #4
  %78 = load i32, ptr %9, align 4
  switch i32 %78, label %106 [
    i32 0, label %79
  ]

79:                                               ; preds = %77
  br label %80

80:                                               ; preds = %79, %29
  br label %81

81:                                               ; preds = %84, %80
  %82 = load i32, ptr %6, align 4, !tbaa !9
  %83 = icmp uge i32 %82, 64
  br i1 %83, label %84, label %99

84:                                               ; preds = %81
  %85 = load ptr, ptr %4, align 8, !tbaa !4
  %86 = getelementptr inbounds nuw %struct.MD5Context, ptr %85, i32 0, i32 2
  %87 = getelementptr inbounds [64 x i8], ptr %86, i64 0, i64 0
  %88 = load ptr, ptr %5, align 8, !tbaa !11
  call void @llvm.memcpy.p0.p0.i64(ptr align 4 %87, ptr align 1 %88, i64 64, i1 false)
  %89 = load ptr, ptr %4, align 8, !tbaa !4
  %90 = getelementptr inbounds nuw %struct.MD5Context, ptr %89, i32 0, i32 0
  %91 = getelementptr inbounds [4 x i32], ptr %90, i64 0, i64 0
  %92 = load ptr, ptr %4, align 8, !tbaa !4
  %93 = getelementptr inbounds nuw %struct.MD5Context, ptr %92, i32 0, i32 2
  %94 = getelementptr inbounds [64 x i8], ptr %93, i64 0, i64 0
  call void @MD5Transform(ptr noundef %91, ptr noundef %94)
  %95 = load ptr, ptr %5, align 8, !tbaa !11
  %96 = getelementptr inbounds i8, ptr %95, i64 64
  store ptr %96, ptr %5, align 8, !tbaa !11
  %97 = load i32, ptr %6, align 4, !tbaa !9
  %98 = sub i32 %97, 64
  store i32 %98, ptr %6, align 4, !tbaa !9
  br label %81, !llvm.loop !13

99:                                               ; preds = %81
  %100 = load ptr, ptr %4, align 8, !tbaa !4
  %101 = getelementptr inbounds nuw %struct.MD5Context, ptr %100, i32 0, i32 2
  %102 = getelementptr inbounds [64 x i8], ptr %101, i64 0, i64 0
  %103 = load ptr, ptr %5, align 8, !tbaa !11
  %104 = load i32, ptr %6, align 4, !tbaa !9
  %105 = zext i32 %104 to i64
  call void @llvm.memcpy.p0.p0.i64(ptr align 4 %102, ptr align 1 %103, i64 %105, i1 false)
  store i32 0, ptr %9, align 4
  br label %106

106:                                              ; preds = %99, %77
  call void @llvm.lifetime.end.p0(i64 4, ptr %7) #4
  %107 = load i32, ptr %9, align 4
  switch i32 %107, label %109 [
    i32 0, label %108
    i32 1, label %108
  ]

108:                                              ; preds = %106, %106
  ret void

109:                                              ; preds = %106
  unreachable
}