; Function Attrs: nofree norecurse nosync nounwind memory(argmem: readwrite) uwtable
define dso_local void @MD5Update(ptr noundef captures(none) %0, ptr noundef readonly captures(none) %1, i32 noundef %2) local_unnamed_addr #1 {
._crit_edge52:
  %3 = getelementptr inbounds nuw i8, ptr %0, i64 16
  %4 = load i32, ptr %3, align 4, !tbaa !4
  %5 = shl i32 %2, 3
  %6 = add i32 %4, %5
  store i32 %6, ptr %3, align 4, !tbaa !4
  %7 = icmp ult i32 %6, %4
  %8 = getelementptr inbounds nuw i8, ptr %0, i64 20
  %9 = load i32, ptr %8, align 4, !tbaa !4
  %10 = zext i1 %7 to i32
  %11 = add i32 %9, %10
  %12 = lshr i32 %2, 29
  %13 = getelementptr inbounds nuw i8, ptr %0, i64 20
  %14 = add i32 %11, %12
  store i32 %14, ptr %13, align 4, !tbaa !4
  %15 = lshr i32 %4, 3
  %16 = and i32 %15, 63
  %.not = icmp eq i32 %16, 0
  br i1 %.not, label %27, label %17

17:                                               ; preds = %._crit_edge52
  %18 = getelementptr inbounds nuw i8, ptr %0, i64 24
  %19 = zext nneg i32 %16 to i64
  %20 = getelementptr inbounds nuw i8, ptr %18, i64 %19
  %21 = sub nuw nsw i32 64, %16
  %.not45 = icmp ult i32 %2, %21
  br i1 %.not45, label %.thread, label %23

.thread:                                          ; preds = %17
  %22 = zext nneg i32 %2 to i64
  tail call void @llvm.memcpy.p0.p0.i64(ptr nonnull align 1 %20, ptr align 1 %1, i64 %22, i1 false)
  br label %36

23:                                               ; preds = %17
  %24 = zext nneg i32 %21 to i64
  tail call void @llvm.memcpy.p0.p0.i64(ptr noundef nonnull align 1 dereferenceable(1) %20, ptr noundef nonnull align 1 dereferenceable(1) %1, i64 %24, i1 false)
  tail call void @MD5Transform(ptr noundef nonnull %0, ptr noundef nonnull %18)
  %25 = getelementptr inbounds nuw i8, ptr %1, i64 %24
  %26 = sub nuw i32 %2, %21
  br label %27

27:                                               ; preds = %23, %._crit_edge52
  %.038 = phi i32 [ %26, %23 ], [ %2, %._crit_edge52 ]
  %.037 = phi ptr [ %25, %23 ], [ %1, %._crit_edge52 ]
  %28 = icmp ugt i32 %.038, 63
  br i1 %28, label %.lr.ph, label %._crit_edge

.lr.ph:                                           ; preds = %27
  %29 = getelementptr inbounds nuw i8, ptr %0, i64 24
  br label %30

30:                                               ; preds = %.lr.ph, %30
  %.249 = phi ptr [ %.037, %.lr.ph ], [ %31, %30 ]
  %.24048 = phi i32 [ %.038, %.lr.ph ], [ %32, %30 ]
  tail call void @llvm.memcpy.p0.p0.i64(ptr noundef nonnull align 4 dereferenceable(64) %29, ptr noundef nonnull align 1 dereferenceable(64) %.249, i64 64, i1 false)
  tail call void @MD5Transform(ptr noundef nonnull %0, ptr noundef nonnull %29)
  %31 = getelementptr inbounds nuw i8, ptr %.249, i64 64
  %32 = add i32 %.24048, -64
  %33 = icmp ugt i32 %32, 63
  br i1 %33, label %30, label %._crit_edge, !llvm.loop !8

._crit_edge:                                      ; preds = %30, %27
  %.240.lcssa = phi i32 [ %.038, %27 ], [ %32, %30 ]
  %.2.lcssa = phi ptr [ %.037, %27 ], [ %31, %30 ]
  %34 = getelementptr inbounds nuw i8, ptr %0, i64 24
  %35 = zext nneg i32 %.240.lcssa to i64
  tail call void @llvm.memcpy.p0.p0.i64(ptr nonnull align 4 %34, ptr align 1 %.2.lcssa, i64 %35, i1 false)
  br label %36

36:                                               ; preds = %.thread, %._crit_edge
  ret void
}